target datalayout = "e-m:e-p270:32:32-p271:32:32-p272:64:64-i64:64-i128:128-f80:128-n8:16:32:64-S128"
target triple = "x86_64-pc-linux-gnu"

%struct.pointf_s = type { double, double }
%struct.Agobj_s = type { %struct.Agtag_s, ptr }
%struct.Agtag_s = type { i32, i64 }
%struct.Agnodeinfo_t = type { %struct.Agrec_s, ptr, ptr, %struct.pointf_s, double, double, %struct.boxf, double, double, double, double, double, ptr, ptr, ptr, i8, i8, i8, i8, i32, i32, i32, ptr, double, i8, i8, ptr, ptr, i8, i64, i8, i8, i8, ptr, ptr, %struct.elist, %struct.elist, %struct.elist, %struct.elist, %struct.elist, ptr, i32, ptr, i32, i32, double, %struct.elist, %struct.elist, %struct.elist, %struct.elist, ptr, i32, i32, i32, [1 x double] }
%struct.Agrec_s = type { ptr, ptr }
%struct.boxf = type { %struct.pointf_s, %struct.pointf_s }
%struct.elist = type { ptr, i64 }
%struct.Agraphinfo_t = type { %struct.Agrec_s, ptr, ptr, %struct.boxf, [4 x %struct.pointf_s], i8, i8, i8, i8, i32, double, double, i16, ptr, ptr, ptr, ptr, i32, ptr, ptr, ptr, ptr, i16, i16, i32, ptr, ptr, ptr, ptr, ptr, i32, ptr, ptr, %struct.nlist_t, ptr, ptr, i32, i32, i8, i8, i32, i32, i32, ptr, ptr, ptr, ptr, i8, i8, i8, i8, i8 }
%struct.nlist_t = type { ptr, i64 }
%struct.field_t = type { %struct.pointf_s, %struct.boxf, i32, ptr, ptr, ptr, i8, i8 }
%struct.anon.3 = type { ptr, ptr, ptr, double, ptr, i64, i64, double, double, double, double }

@N_penwidth = external global ptr, align 8

; Function Attrs: inlinehint nounwind uwtable
define internal { double, double } @add_pointf(double %0, double %1, double %2, double %3) #5 {
  %5 = alloca %struct.pointf_s, align 8
  %6 = alloca %struct.pointf_s, align 8
  %7 = alloca %struct.pointf_s, align 8
  %8 = getelementptr inbounds nuw { double, double }, ptr %6, i32 0, i32 0
  store double %0, ptr %8, align 8
  %9 = getelementptr inbounds nuw { double, double }, ptr %6, i32 0, i32 1
  store double %1, ptr %9, align 8
  %10 = getelementptr inbounds nuw { double, double }, ptr %7, i32 0, i32 0
  store double %2, ptr %10, align 8
  %11 = getelementptr inbounds nuw { double, double }, ptr %7, i32 0, i32 1
  store double %3, ptr %11, align 8
  %12 = getelementptr inbounds nuw %struct.pointf_s, ptr %6, i32 0, i32 0
  %13 = load double, ptr %12, align 8, !tbaa !21
  %14 = getelementptr inbounds nuw %struct.pointf_s, ptr %7, i32 0, i32 0
  %15 = load double, ptr %14, align 8, !tbaa !21
  %16 = fadd double %13, %15
  %17 = getelementptr inbounds nuw %struct.pointf_s, ptr %5, i32 0, i32 0
  store double %16, ptr %17, align 8, !tbaa !21
  %18 = getelementptr inbounds nuw %struct.pointf_s, ptr %6, i32 0, i32 1
  %19 = load double, ptr %18, align 8, !tbaa !23
  %20 = getelementptr inbounds nuw %struct.pointf_s, ptr %7, i32 0, i32 1
  %21 = load double, ptr %20, align 8, !tbaa !23
  %22 = fadd double %19, %21
  %23 = getelementptr inbounds nuw %struct.pointf_s, ptr %5, i32 0, i32 1
  store double %22, ptr %23, align 8, !tbaa !23
  %24 = load { double, double }, ptr %5, align 8
  ret { double, double } %24
}

; Function Attrs: inlinehint nounwind uwtable
define internal { double, double } @sub_pointf(double %0, double %1, double %2, double %3) #5 {
  %5 = alloca %struct.pointf_s, align 8
  %6 = alloca %struct.pointf_s, align 8
  %7 = alloca %struct.pointf_s, align 8
  %8 = getelementptr inbounds nuw { double, double }, ptr %6, i32 0, i32 0
  store double %0, ptr %8, align 8
  %9 = getelementptr inbounds nuw { double, double }, ptr %6, i32 0, i32 1
  store double %1, ptr %9, align 8
  %10 = getelementptr inbounds nuw { double, double }, ptr %7, i32 0, i32 0
  store double %2, ptr %10, align 8
  %11 = getelementptr inbounds nuw { double, double }, ptr %7, i32 0, i32 1
  store double %3, ptr %11, align 8
  %12 = getelementptr inbounds nuw %struct.pointf_s, ptr %6, i32 0, i32 0
  %13 = load double, ptr %12, align 8, !tbaa !21
  %14 = getelementptr inbounds nuw %struct.pointf_s, ptr %7, i32 0, i32 0
  %15 = load double, ptr %14, align 8, !tbaa !21
  %16 = fsub double %13, %15
  %17 = getelementptr inbounds nuw %struct.pointf_s, ptr %5, i32 0, i32 0
  store double %16, ptr %17, align 8, !tbaa !21
  %18 = getelementptr inbounds nuw %struct.pointf_s, ptr %6, i32 0, i32 1
  %19 = load double, ptr %18, align 8, !tbaa !23
  %20 = getelementptr inbounds nuw %struct.pointf_s, ptr %7, i32 0, i32 1
  %21 = load double, ptr %20, align 8, !tbaa !23
  %22 = fsub double %19, %21
  %23 = getelementptr inbounds nuw %struct.pointf_s, ptr %5, i32 0, i32 1
  store double %22, ptr %23, align 8, !tbaa !23
  %24 = load { double, double }, ptr %5, align 8
  ret { double, double } %24
}

; Function Attrs: nounwind uwtable
define internal zeroext i1 @record_inside(ptr noundef %0, double %1, double %2) #0 {
  %4 = alloca %struct.pointf_s, align 8
  %5 = alloca ptr, align 8
  %6 = alloca ptr, align 8
  %7 = alloca ptr, align 8
  %8 = alloca ptr, align 8
  %9 = alloca %struct.boxf, align 8
  %10 = alloca %struct.pointf_s, align 8
  %11 = alloca double, align 8
  %12 = alloca %struct.pointf_s, align 8
  %13 = alloca %struct.pointf_s, align 8
  %14 = alloca %struct.pointf_s, align 8
  %15 = getelementptr inbounds nuw { double, double }, ptr %4, i32 0, i32 0
  store double %1, ptr %15, align 8
  %16 = getelementptr inbounds nuw { double, double }, ptr %4, i32 0, i32 1
  store double %2, ptr %16, align 8
  store ptr %0, ptr %5, align 8, !tbaa !157
  call void @llvm.lifetime.start.p0(i64 8, ptr %6) #13
  call void @llvm.lifetime.start.p0(i64 8, ptr %7) #13
  %17 = load ptr, ptr %5, align 8, !tbaa !157
  %18 = getelementptr inbounds nuw %struct.anon.3, ptr %17, i32 0, i32 1
  %19 = load ptr, ptr %18, align 8, !tbaa !98
  store ptr %19, ptr %7, align 8, !tbaa !34
  call void @llvm.lifetime.start.p0(i64 8, ptr %8) #13
  %20 = load ptr, ptr %5, align 8, !tbaa !157
  %21 = getelementptr inbounds nuw %struct.anon.3, ptr %20, i32 0, i32 0
  %22 = load ptr, ptr %21, align 8, !tbaa !98
  store ptr %22, ptr %8, align 8, !tbaa !35
  call void @llvm.lifetime.start.p0(i64 32, ptr %9) #13
  call void @llvm.lifetime.start.p0(i64 16, ptr %10) #13
  %23 = load ptr, ptr %8, align 8, !tbaa !35
  %24 = call ptr @agraphof(ptr noundef %23)
  %25 = getelementptr inbounds nuw %struct.Agobj_s, ptr %24, i32 0, i32 1
  %26 = load ptr, ptr %25, align 8, !tbaa !37
  %27 = getelementptr inbounds nuw %struct.Agraphinfo_t, ptr %26, i32 0, i32 9
  %28 = load i32, ptr %27, align 4, !tbaa !118
  %29 = and i32 %28, 3
  %30 = mul nsw i32 90, %29
  %31 = getelementptr inbounds nuw { double, double }, ptr %4, i32 0, i32 0
  %32 = load double, ptr %31, align 8
  %33 = getelementptr inbounds nuw { double, double }, ptr %4, i32 0, i32 1
  %34 = load double, ptr %33, align 8
  %35 = call { double, double } @ccwrotatepf(double %32, double %34, i32 noundef %30)
  %36 = getelementptr inbounds nuw { double, double }, ptr %10, i32 0, i32 0
  %37 = extractvalue { double, double } %35, 0
  store double %37, ptr %36, align 8
  %38 = getelementptr inbounds nuw { double, double }, ptr %10, i32 0, i32 1
  %39 = extractvalue { double, double } %35, 1
  store double %39, ptr %38, align 8
  call void @llvm.memcpy.p0.p0.i64(ptr align 8 %4, ptr align 8 %10, i64 16, i1 false), !tbaa.struct !16
  call void @llvm.lifetime.end.p0(i64 16, ptr %10) #13
  %40 = load ptr, ptr %7, align 8, !tbaa !34
  %41 = icmp eq ptr %40, null
  br i1 %41, label %42, label %50

42:                                               ; preds = %3
  %43 = load ptr, ptr %8, align 8, !tbaa !35
  %44 = getelementptr inbounds nuw %struct.Agobj_s, ptr %43, i32 0, i32 1
  %45 = load ptr, ptr %44, align 8, !tbaa !37
  %46 = getelementptr inbounds nuw %struct.Agnodeinfo_t, ptr %45, i32 0, i32 2
  %47 = load ptr, ptr %46, align 8, !tbaa !117
  store ptr %47, ptr %6, align 8, !tbaa !120
  %48 = load ptr, ptr %6, align 8, !tbaa !120
  %49 = getelementptr inbounds nuw %struct.field_t, ptr %48, i32 0, i32 1
  call void @llvm.memcpy.p0.p0.i64(ptr align 8 %9, ptr align 8 %49, i64 32, i1 false), !tbaa.struct !149
  br label %52

50:                                               ; preds = %3
  %51 = load ptr, ptr %7, align 8, !tbaa !34
  call void @llvm.memcpy.p0.p0.i64(ptr align 8 %9, ptr align 8 %51, i64 32, i1 false), !tbaa.struct !149
  br label %52

52:                                               ; preds = %50, %42
  call void @llvm.lifetime.start.p0(i64 8, ptr %11) #13
  %53 = load ptr, ptr %8, align 8, !tbaa !35
  %54 = load ptr, ptr @N_penwidth, align 8, !tbaa !72
  %55 = call double @late_double(ptr noundef %53, ptr noundef %54, double noundef 1.000000e+00, double noundef 0.000000e+00)
  store double %55, ptr %11, align 8, !tbaa !17
  call void @llvm.lifetime.start.p0(i64 16, ptr %12) #13
  %56 = getelementptr inbounds nuw %struct.pointf_s, ptr %12, i32 0, i32 0
  %57 = load double, ptr %11, align 8, !tbaa !17
  %58 = fdiv double %57, 2.000000e+00
  store double %58, ptr %56, align 8, !tbaa !21
  %59 = getelementptr inbounds nuw %struct.pointf_s, ptr %12, i32 0, i32 1
  %60 = load double, ptr %11, align 8, !tbaa !17
  %61 = fdiv double %60, 2.000000e+00
  store double %61, ptr %59, align 8, !tbaa !23
  %62 = getelementptr inbounds nuw %struct.boxf, ptr %9, i32 0, i32 0
  call void @llvm.lifetime.start.p0(i64 16, ptr %13) #13
  %63 = getelementptr inbounds nuw %struct.boxf, ptr %9, i32 0, i32 0
  %64 = getelementptr inbounds nuw { double, double }, ptr %63, i32 0, i32 0
  %65 = load double, ptr %64, align 8
  %66 = getelementptr inbounds nuw { double, double }, ptr %63, i32 0, i32 1
  %67 = load double, ptr %66, align 8
  %68 = getelementptr inbounds nuw { double, double }, ptr %12, i32 0, i32 0
  %69 = load double, ptr %68, align 8
  %70 = getelementptr inbounds nuw { double, double }, ptr %12, i32 0, i32 1
  %71 = load double, ptr %70, align 8
  %72 = call { double, double } @sub_pointf(double %65, double %67, double %69, double %71)
  %73 = getelementptr inbounds nuw { double, double }, ptr %13, i32 0, i32 0
  %74 = extractvalue { double, double } %72, 0
  store double %74, ptr %73, align 8
  %75 = getelementptr inbounds nuw { double, double }, ptr %13, i32 0, i32 1
  %76 = extractvalue { double, double } %72, 1
  store double %76, ptr %75, align 8
  call void @llvm.memcpy.p0.p0.i64(ptr align 8 %62, ptr align 8 %13, i64 16, i1 false), !tbaa.struct !16
  call void @llvm.lifetime.end.p0(i64 16, ptr %13) #13
  %77 = getelementptr inbounds nuw %struct.boxf, ptr %9, i32 0, i32 1
  call void @llvm.lifetime.start.p0(i64 16, ptr %14) #13
  %78 = getelementptr inbounds nuw %struct.boxf, ptr %9, i32 0, i32 1
  %79 = getelementptr inbounds nuw { double, double }, ptr %78, i32 0, i32 0
  %80 = load double, ptr %79, align 8
  %81 = getelementptr inbounds nuw { double, double }, ptr %78, i32 0, i32 1
  %82 = load double, ptr %81, align 8
  %83 = getelementptr inbounds nuw { double, double }, ptr %12, i32 0, i32 0
  %84 = load double, ptr %83, align 8
  %85 = getelementptr inbounds nuw { double, double }, ptr %12, i32 0, i32 1
  %86 = load double, ptr %85, align 8
  %87 = call { double, double } @add_pointf(double %80, double %82, double %84, double %86)
  %88 = getelementptr inbounds nuw { double, double }, ptr %14, i32 0, i32 0
  %89 = extractvalue { double, double } %87, 0
  store double %89, ptr %88, align 8
  %90 = getelementptr inbounds nuw { double, double }, ptr %14, i32 0, i32 1
  %91 = extractvalue { double, double } %87, 1
  store double %91, ptr %90, align 8
  call void @llvm.memcpy.p0.p0.i64(ptr align 8 %77, ptr align 8 %14, i64 16, i1 false), !tbaa.struct !16
  call void @llvm.lifetime.end.p0(i64 16, ptr %14) #13
  %92 = getelementptr inbounds nuw %struct.boxf, ptr %9, i32 0, i32 0
  %93 = getelementptr inbounds nuw %struct.pointf_s, ptr %92, i32 0, i32 0
  %94 = load double, ptr %93, align 8, !tbaa !152
  %95 = getelementptr inbounds nuw %struct.pointf_s, ptr %4, i32 0, i32 0
  %96 = load double, ptr %95, align 8, !tbaa !21
  %97 = fcmp ole double %94, %96
  br i1 %97, label %98, label %121

98:                                               ; preds = %52
  %99 = getelementptr inbounds nuw %struct.pointf_s, ptr %4, i32 0, i32 0
  %100 = load double, ptr %99, align 8, !tbaa !21
  %101 = getelementptr inbounds nuw %struct.boxf, ptr %9, i32 0, i32 1
  %102 = getelementptr inbounds nuw %struct.pointf_s, ptr %101, i32 0, i32 0
  %103 = load double, ptr %102, align 8, !tbaa !151
  %104 = fcmp ole double %100, %103
  br i1 %104, label %105, label %121

105:                                              ; preds = %98
  %106 = getelementptr inbounds nuw %struct.boxf, ptr %9, i32 0, i32 0
  %107 = getelementptr inbounds nuw %struct.pointf_s, ptr %106, i32 0, i32 1
  %108 = load double, ptr %107, align 8, !tbaa !155
  %109 = getelementptr inbounds nuw %struct.pointf_s, ptr %4, i32 0, i32 1
  %110 = load double, ptr %109, align 8, !tbaa !23
  %111 = fcmp ole double %108, %110
  br i1 %111, label %112, label %119

112:                                              ; preds = %105
  %113 = getelementptr inbounds nuw %struct.pointf_s, ptr %4, i32 0, i32 1
  %114 = load double, ptr %113, align 8, !tbaa !23
  %115 = getelementptr inbounds nuw %struct.boxf, ptr %9, i32 0, i32 1
  %116 = getelementptr inbounds nuw %struct.pointf_s, ptr %115, i32 0, i32 1
  %117 = load double, ptr %116, align 8, !tbaa !154
  %118 = fcmp ole double %114, %117
  br label %119

119:                                              ; preds = %112, %105
  %120 = phi i1 [ false, %105 ], [ %118, %112 ]
  br label %121

121:                                              ; preds = %119, %98, %52
  %122 = phi i1 [ false, %98 ], [ false, %52 ], [ %120, %119 ]
  call void @llvm.lifetime.end.p0(i64 16, ptr %12) #13
  call void @llvm.lifetime.end.p0(i64 8, ptr %11) #13
  call void @llvm.lifetime.end.p0(i64 32, ptr %9) #13
  call void @llvm.lifetime.end.p0(i64 8, ptr %8) #13
  call void @llvm.lifetime.end.p0(i64 8, ptr %7) #13
  call void @llvm.lifetime.end.p0(i64 8, ptr %6) #13
  ret i1 %122
}