; Function Attrs: nounwind uwtable
define internal zeroext i1 @record_inside(ptr noundef readonly captures(none) %0, double %1, double %2) #0 {
  %4 = getelementptr inbounds nuw i8, ptr %0, i64 8
  %5 = load ptr, ptr %4, align 8, !tbaa !81
  %6 = load ptr, ptr %0, align 8, !tbaa !81
  %7 = tail call ptr @agraphof(ptr noundef %6) #26
  %8 = getelementptr inbounds nuw i8, ptr %7, i64 16
  %9 = load ptr, ptr %8, align 8, !tbaa !21
  %10 = getelementptr inbounds nuw i8, ptr %9, i64 132
  %11 = load i32, ptr %10, align 4, !tbaa !101
  %12 = and i32 %11, 3
  %13 = mul nuw nsw i32 %12, 90
  %14 = tail call { double, double } @ccwrotatepf(double %1, double %2, i32 noundef %13) #26
  %15 = extractvalue { double, double } %14, 0
  %16 = extractvalue { double, double } %14, 1
  %17 = icmp eq ptr %5, null
  br i1 %17, label %18, label %24

18:                                               ; preds = %3
  %19 = getelementptr inbounds nuw i8, ptr %6, i64 16
  %20 = load ptr, ptr %19, align 8, !tbaa !21
  %21 = getelementptr inbounds nuw i8, ptr %20, i64 24
  %22 = load ptr, ptr %21, align 8, !tbaa !100
  %23 = getelementptr inbounds nuw i8, ptr %22, i64 16
  %.sroa.7.0..sroa_idx = getelementptr inbounds nuw i8, ptr %22, i64 24
  %.sroa.10.0..sroa_idx = getelementptr inbounds nuw i8, ptr %22, i64 32
  %.sroa.13.0..sroa_idx = getelementptr inbounds nuw i8, ptr %22, i64 40
  br label %25

24:                                               ; preds = %3
  %.sroa.7.0..sroa_idx12 = getelementptr inbounds nuw i8, ptr %5, i64 8
  %.sroa.10.0..sroa_idx15 = getelementptr inbounds nuw i8, ptr %5, i64 16
  %.sroa.13.0..sroa_idx18 = getelementptr inbounds nuw i8, ptr %5, i64 24
  br label %25

25:                                               ; preds = %24, %18
  %.sroa.09.0.in = phi ptr [ %23, %18 ], [ %5, %24 ]
  %.sroa.7.0.in = phi ptr [ %.sroa.7.0..sroa_idx, %18 ], [ %.sroa.7.0..sroa_idx12, %24 ]
  %.sroa.10.0.in = phi ptr [ %.sroa.10.0..sroa_idx, %18 ], [ %.sroa.10.0..sroa_idx15, %24 ]
  %.sroa.13.0.in = phi ptr [ %.sroa.13.0..sroa_idx, %18 ], [ %.sroa.13.0..sroa_idx18, %24 ]
  %.sroa.13.0 = load double, ptr %.sroa.13.0.in, align 8, !tbaa !4
  %.sroa.10.0 = load double, ptr %.sroa.10.0.in, align 8, !tbaa !4
  %.sroa.7.0 = load double, ptr %.sroa.7.0.in, align 8, !tbaa !4
  %.sroa.09.0 = load double, ptr %.sroa.09.0.in, align 8, !tbaa !4
  %26 = load ptr, ptr @N_penwidth, align 8, !tbaa !56
  %27 = tail call double @late_double(ptr noundef %6, ptr noundef %26, double noundef 1.000000e+00, double noundef 0.000000e+00) #26
  %28 = fmul double %27, 5.000000e-01
  %29 = fsub double %.sroa.09.0, %28
  %30 = fadd double %.sroa.10.0, %28
  %31 = fcmp ugt double %29, %15
  %32 = fcmp ugt double %15, %30
  %or.cond = select i1 %31, i1 true, i1 %32
  br i1 %or.cond, label %39, label %33

33:                                               ; preds = %25
  %34 = fadd double %.sroa.13.0, %28
  %35 = fsub double %.sroa.7.0, %28
  %36 = fcmp ole double %35, %16
  %37 = fcmp ole double %16, %34
  %38 = select i1 %36, i1 %37, i1 false
  br label %39

39:                                               ; preds = %33, %25
  %40 = phi i1 [ false, %25 ], [ %38, %33 ]
  ret i1 %40
}